target datalayout = "e-m:e-p270:32:32-p271:32:32-p272:64:64-i64:64-i128:128-f80:128-n8:16:32:64-S128"
target triple = "x86_64-pc-linux-gnu"

@_ZL14invariantChars = internal constant [4 x i32] [i32 -1025, i32 -27, i32 -2013265922, i32 -2013265922], align 16

; Function Attrs: mustprogress uwtable
define i32 @uprv_compareInvEbcdic_77(ptr noundef %0, ptr noundef %1, i32 noundef %2, ptr noundef %3, i32 noundef %4) #2 {
  %6 = alloca i32, align 4
  %7 = alloca ptr, align 8
  %8 = alloca ptr, align 8
  %9 = alloca i32, align 4
  %10 = alloca ptr, align 8
  %11 = alloca i32, align 4
  %12 = alloca i32, align 4
  %13 = alloca i32, align 4
  %14 = alloca i32, align 4
  %15 = alloca i8, align 1
  %16 = alloca i32, align 4
  store ptr %0, ptr %7, align 8, !tbaa !20
  store ptr %1, ptr %8, align 8, !tbaa !3
  store i32 %2, ptr %9, align 4, !tbaa !10
  store ptr %3, ptr %10, align 8, !tbaa !8
  store i32 %4, ptr %11, align 4, !tbaa !10
  call void @llvm.lifetime.start.p0(i64 4, ptr %12) #7
  call void @llvm.lifetime.start.p0(i64 4, ptr %13) #7
  call void @llvm.lifetime.start.p0(i64 4, ptr %14) #7
  call void @llvm.lifetime.start.p0(i64 1, ptr %15) #7
  %17 = load ptr, ptr %8, align 8, !tbaa !3
  %18 = icmp eq ptr %17, null
  br i1 %18, label %28, label %19

19:                                               ; preds = %5
  %20 = load i32, ptr %9, align 4, !tbaa !10
  %21 = icmp slt i32 %20, -1
  br i1 %21, label %28, label %22

22:                                               ; preds = %19
  %23 = load ptr, ptr %10, align 8, !tbaa !8
  %24 = icmp eq ptr %23, null
  br i1 %24, label %28, label %25

25:                                               ; preds = %22
  %26 = load i32, ptr %11, align 4, !tbaa !10
  %27 = icmp slt i32 %26, -1
  br i1 %27, label %28, label %29

28:                                               ; preds = %25, %22, %19, %5
  store i32 0, ptr %6, align 4
  store i32 1, ptr %16, align 4
  br label %120

29:                                               ; preds = %25
  %30 = load i32, ptr %9, align 4, !tbaa !10
  %31 = icmp slt i32 %30, 0
  br i1 %31, label %32, label %36

32:                                               ; preds = %29
  %33 = load ptr, ptr %8, align 8, !tbaa !3
  %34 = call i64 @strlen(ptr noundef %33) #8
  %35 = trunc i64 %34 to i32
  store i32 %35, ptr %9, align 4, !tbaa !10
  br label %36

36:                                               ; preds = %32, %29
  %37 = load i32, ptr %11, align 4, !tbaa !10
  %38 = icmp slt i32 %37, 0
  br i1 %38, label %39, label %42

39:                                               ; preds = %36
  %40 = load ptr, ptr %10, align 8, !tbaa !8
  %41 = call i32 @u_strlen_77(ptr noundef %40)
  store i32 %41, ptr %11, align 4, !tbaa !10
  br label %42

42:                                               ; preds = %39, %36
  %43 = load i32, ptr %9, align 4, !tbaa !10
  %44 = load i32, ptr %11, align 4, !tbaa !10
  %45 = icmp slt i32 %43, %44
  br i1 %45, label %46, label %48

46:                                               ; preds = %42
  %47 = load i32, ptr %9, align 4, !tbaa !10
  br label %50

48:                                               ; preds = %42
  %49 = load i32, ptr %11, align 4, !tbaa !10
  br label %50

50:                                               ; preds = %48, %46
  %51 = phi i32 [ %47, %46 ], [ %49, %48 ]
  store i32 %51, ptr %12, align 4, !tbaa !10
  br label %52

52:                                               ; preds = %113, %50
  %53 = load i32, ptr %12, align 4, !tbaa !10
  %54 = icmp sgt i32 %53, 0
  br i1 %54, label %55, label %116

55:                                               ; preds = %52
  %56 = load ptr, ptr %8, align 8, !tbaa !3
  %57 = getelementptr inbounds nuw i8, ptr %56, i32 1
  store ptr %57, ptr %8, align 8, !tbaa !3
  %58 = load i8, ptr %56, align 1, !tbaa !12
  store i8 %58, ptr %15, align 1, !tbaa !12
  %59 = load i8, ptr %15, align 1, !tbaa !12
  %60 = zext i8 %59 to i32
  %61 = icmp eq i32 %60, 0
  br i1 %61, label %62, label %63

62:                                               ; preds = %55
  store i32 0, ptr %13, align 4, !tbaa !10
  br label %87

63:                                               ; preds = %55
  %64 = load i8, ptr %15, align 1, !tbaa !12
  %65 = zext i8 %64 to i64
  %66 = getelementptr inbounds nuw [256 x i8], ptr @_ZL15asciiFromEbcdic, i64 0, i64 %65
  %67 = load i8, ptr %66, align 1, !tbaa !12
  %68 = zext i8 %67 to i32
  store i32 %68, ptr %13, align 4, !tbaa !10
  %69 = icmp ne i32 %68, 0
  br i1 %69, label %70, label %85

70:                                               ; preds = %63
  %71 = load i32, ptr %13, align 4, !tbaa !10
  %72 = icmp sle i32 %71, 127
  br i1 %72, label %73, label %85

73:                                               ; preds = %70
  %74 = load i32, ptr %13, align 4, !tbaa !10
  %75 = ashr i32 %74, 5
  %76 = sext i32 %75 to i64
  %77 = getelementptr inbounds [4 x i32], ptr @_ZL14invariantChars, i64 0, i64 %76
  %78 = load i32, ptr %77, align 4, !tbaa !10
  %79 = load i32, ptr %13, align 4, !tbaa !10
  %80 = and i32 %79, 31
  %81 = shl i32 1, %80
  %82 = and i32 %78, %81
  %83 = icmp ne i32 %82, 0
  br i1 %83, label %84, label %85

84:                                               ; preds = %73
  br label %86

85:                                               ; preds = %73, %70, %63
  store i32 -1, ptr %13, align 4, !tbaa !10
  br label %86

86:                                               ; preds = %85, %84
  br label %87

87:                                               ; preds = %86, %62
  %88 = load ptr, ptr %10, align 8, !tbaa !8
  %89 = getelementptr inbounds nuw i16, ptr %88, i32 1
  store ptr %89, ptr %10, align 8, !tbaa !8
  %90 = load i16, ptr %88, align 2, !tbaa !13
  %91 = zext i16 %90 to i32
  store i32 %91, ptr %14, align 4, !tbaa !10
  %92 = load i32, ptr %14, align 4, !tbaa !10
  %93 = icmp sle i32 %92, 127
  br i1 %93, label %94, label %105

94:                                               ; preds = %87
  %95 = load i32, ptr %14, align 4, !tbaa !10
  %96 = ashr i32 %95, 5
  %97 = sext i32 %96 to i64
  %98 = getelementptr inbounds [4 x i32], ptr @_ZL14invariantChars, i64 0, i64 %97
  %99 = load i32, ptr %98, align 4, !tbaa !10
  %100 = load i32, ptr %14, align 4, !tbaa !10
  %101 = and i32 %100, 31
  %102 = shl i32 1, %101
  %103 = and i32 %99, %102
  %104 = icmp ne i32 %103, 0
  br i1 %104, label %106, label %105

105:                                              ; preds = %94, %87
  store i32 -2, ptr %14, align 4, !tbaa !10
  br label %106

106:                                              ; preds = %105, %94
  %107 = load i32, ptr %14, align 4, !tbaa !10
  %108 = load i32, ptr %13, align 4, !tbaa !10
  %109 = sub nsw i32 %108, %107
  store i32 %109, ptr %13, align 4, !tbaa !10
  %110 = icmp ne i32 %109, 0
  br i1 %110, label %111, label %113

111:                                              ; preds = %106
  %112 = load i32, ptr %13, align 4, !tbaa !10
  store i32 %112, ptr %6, align 4
  store i32 1, ptr %16, align 4
  br label %120

113:                                              ; preds = %106
  %114 = load i32, ptr %12, align 4, !tbaa !10
  %115 = add nsw i32 %114, -1
  store i32 %115, ptr %12, align 4, !tbaa !10
  br label %52, !llvm.loop !30

116:                                              ; preds = %52
  %117 = load i32, ptr %9, align 4, !tbaa !10
  %118 = load i32, ptr %11, align 4, !tbaa !10
  %119 = sub nsw i32 %117, %118
  store i32 %119, ptr %6, align 4
  store i32 1, ptr %16, align 4
  br label %120

120:                                              ; preds = %116, %111, %28
  call void @llvm.lifetime.end.p0(i64 1, ptr %15) #7
  call void @llvm.lifetime.end.p0(i64 4, ptr %14) #7
  call void @llvm.lifetime.end.p0(i64 4, ptr %13) #7
  call void @llvm.lifetime.end.p0(i64 4, ptr %12) #7
  %121 = load i32, ptr %6, align 4
  ret i32 %121
}