; Function Attrs: mustprogress uwtable
define i32 @uprv_compareInvEbcdic_77(ptr noundef readnone captures(none) %0, ptr noundef readonly %1, i32 noundef %2, ptr noundef %3, i32 noundef %4) local_unnamed_addr #2 {
  %6 = icmp eq ptr %1, null
  %7 = icmp slt i32 %2, -1
  %or.cond = or i1 %6, %7
  %8 = icmp eq ptr %3, null
  %or.cond3 = or i1 %or.cond, %8
  %9 = icmp slt i32 %4, -1
  %or.cond5 = or i1 %or.cond3, %9
  br i1 %or.cond5, label %.loopexit, label %10

10:                                               ; preds = %5
  %11 = icmp slt i32 %2, 0
  br i1 %11, label %12, label %15

12:                                               ; preds = %10
  %13 = tail call i64 @strlen(ptr noundef nonnull dereferenceable(1) %1) #12
  %14 = trunc i64 %13 to i32
  br label %15

15:                                               ; preds = %12, %10
  %.041 = phi i32 [ %14, %12 ], [ %2, %10 ]
  %16 = icmp slt i32 %4, 0
  br i1 %16, label %17, label %19

17:                                               ; preds = %15
  %18 = tail call i32 @u_strlen_77(ptr noundef nonnull %3)
  br label %19

19:                                               ; preds = %17, %15
  %.039 = phi i32 [ %18, %17 ], [ %4, %15 ]
  %20 = tail call i32 @llvm.smin.i32(i32 %.041, i32 %.039)
  %21 = icmp sgt i32 %20, 0
  br i1 %21, label %.lr.ph, label %._crit_edge

22:                                               ; preds = %56
  %23 = add nsw i32 %.03855, -1
  %24 = icmp sgt i32 %.03855, 1
  br i1 %24, label %.lr.ph, label %._crit_edge, !llvm.loop !22

.lr.ph:                                           ; preds = %19, %22
  %.03855 = phi i32 [ %23, %22 ], [ %20, %19 ]
  %.04054 = phi ptr [ %43, %22 ], [ %3, %19 ]
  %.04253 = phi ptr [ %25, %22 ], [ %1, %19 ]
  %25 = getelementptr inbounds nuw i8, ptr %.04253, i64 1
  %26 = load i8, ptr %.04253, align 1, !tbaa !3
  %27 = icmp eq i8 %26, 0
  br i1 %27, label %42, label %28

28:                                               ; preds = %.lr.ph
  %29 = zext i8 %26 to i64
  %30 = getelementptr inbounds nuw [256 x i8], ptr @_ZL15asciiFromEbcdic, i64 0, i64 %29
  %31 = load i8, ptr %30, align 1, !tbaa !3
  %.not = icmp eq i8 %31, 0
  br i1 %.not, label %41, label %32

32:                                               ; preds = %28
  %33 = zext i8 %31 to i32
  %34 = lshr i32 %33, 5
  %35 = zext nneg i32 %34 to i64
  %36 = getelementptr inbounds nuw [4 x i32], ptr @_ZL14invariantChars, i64 0, i64 %35
  %37 = load i32, ptr %36, align 4, !tbaa !10
  %38 = and i32 %33, 31
  %39 = shl nuw i32 1, %38
  %40 = and i32 %37, %39
  %.not50 = icmp eq i32 %40, 0
  br i1 %.not50, label %41, label %42

41:                                               ; preds = %32, %28
  br label %42

42:                                               ; preds = %.lr.ph, %41, %32
  %.037 = phi i32 [ %33, %32 ], [ -1, %41 ], [ 0, %.lr.ph ]
  %43 = getelementptr inbounds nuw i8, ptr %.04054, i64 2
  %44 = load i16, ptr %.04054, align 2, !tbaa !6
  %45 = icmp ult i16 %44, 128
  br i1 %45, label %46, label %55

46:                                               ; preds = %42
  %47 = zext nneg i16 %44 to i32
  %48 = lshr i32 %47, 5
  %49 = zext nneg i32 %48 to i64
  %50 = getelementptr inbounds nuw [4 x i32], ptr @_ZL14invariantChars, i64 0, i64 %49
  %51 = load i32, ptr %50, align 4, !tbaa !10
  %52 = and i32 %47, 31
  %53 = shl nuw i32 1, %52
  %54 = and i32 %51, %53
  %.not51 = icmp eq i32 %54, 0
  br i1 %.not51, label %55, label %56

55:                                               ; preds = %46, %42
  br label %56

56:                                               ; preds = %55, %46
  %.036 = phi i32 [ %47, %46 ], [ -2, %55 ]
  %57 = sub nsw i32 %.037, %.036
  %.not52 = icmp eq i32 %57, 0
  br i1 %.not52, label %22, label %.loopexit

._crit_edge:                                      ; preds = %22, %19
  %58 = sub nsw i32 %.041, %.039
  br label %.loopexit

.loopexit:                                        ; preds = %56, %5, %._crit_edge
  %.0 = phi i32 [ %58, %._crit_edge ], [ 0, %5 ], [ %57, %56 ]
  ret i32 %.0
}